target datalayout = "e-m:e-p270:32:32-p271:32:32-p272:64:64-i64:64-i128:128-f80:128-n8:16:32:64-S128"
target triple = "x86_64-pc-linux-gnu"

%"class.Imf_3_4::StdIFStream" = type <{ %"class.Imf_3_4::IStream", ptr, i8, [7 x i8] }>
%"class.Imf_3_4::IStream" = type { ptr, %"class.std::__cxx11::basic_string" }
%"class.std::__cxx11::basic_string" = type { %"struct.std::__cxx11::basic_string<char>::_Alloc_hider", i64, %union.anon }
%"struct.std::__cxx11::basic_string<char>::_Alloc_hider" = type { ptr }
%union.anon = type { i64, [8 x i8] }

; Function Attrs: inlinehint mustprogress uwtable
define linkonce_odr hidden noundef zeroext i1 @_ZN7Imf_3_48StreamIO9readCharsERNS_7IStreamEPci(ptr noundef nonnull align 8 dereferenceable(40) %0, ptr noundef %1, i32 noundef %2) #8 comdat align 2 {
  %4 = alloca ptr, align 8
  %5 = alloca ptr, align 8
  %6 = alloca i32, align 4
  store ptr %0, ptr %4, align 8, !tbaa !21
  store ptr %1, ptr %5, align 8, !tbaa !3
  store i32 %2, ptr %6, align 4, !tbaa !10
  %7 = load ptr, ptr %4, align 8, !tbaa !21
  %8 = load ptr, ptr %5, align 8, !tbaa !3
  %9 = load i32, ptr %6, align 4, !tbaa !10
  %10 = load ptr, ptr %7, align 8, !tbaa !23
  %11 = getelementptr inbounds ptr, ptr %10, i64 3
  %12 = load ptr, ptr %11, align 8
  %13 = call noundef zeroext i1 %12(ptr noundef nonnull align 8 dereferenceable(40) %7, ptr noundef %8, i32 noundef %9)
  ret i1 %13
}

; Function Attrs: inlinehint mustprogress uwtable
define linkonce_odr hidden void @_ZN7Imf_3_43Xdr15readSignedCharsINS_8StreamIOENS_11StdIFStreamEEEvRT0_Pai(ptr noundef nonnull align 8 dereferenceable(49) %0, ptr noundef %1, i32 noundef %2) #8 comdat {
  %4 = alloca ptr, align 8
  %5 = alloca ptr, align 8
  %6 = alloca i32, align 4
  store ptr %0, ptr %4, align 8, !tbaa !14
  store ptr %1, ptr %5, align 8, !tbaa !3
  store i32 %2, ptr %6, align 4, !tbaa !10
  %7 = load ptr, ptr %4, align 8, !tbaa !14
  %8 = load ptr, ptr %5, align 8, !tbaa !3
  %9 = load i32, ptr %6, align 4, !tbaa !10
  %10 = call noundef zeroext i1 @_ZN7Imf_3_48StreamIO9readCharsERNS_7IStreamEPci(ptr noundef nonnull align 8 dereferenceable(40) %7, ptr noundef %8, i32 noundef %9)
  ret void
}

; Function Attrs: inlinehint mustprogress nounwind uwtable
define linkonce_odr hidden noundef zeroext i1 @_ZN7Imf_3_411isMultiPartEi(i32 noundef %0) #6 comdat {
  %2 = alloca i32, align 4
  store i32 %0, ptr %2, align 4, !tbaa !10
  %3 = load i32, ptr %2, align 4, !tbaa !10
  %4 = and i32 %3, 4096
  %5 = icmp ne i32 %4, 0
  %6 = xor i1 %5, true
  %7 = xor i1 %6, true
  ret i1 %7
}

; Function Attrs: inlinehint mustprogress nounwind uwtable
define linkonce_odr hidden noundef zeroext i1 @_ZN7Imf_3_410isNonImageEi(i32 noundef %0) #6 comdat {
  %2 = alloca i32, align 4
  store i32 %0, ptr %2, align 4, !tbaa !10
  %3 = load i32, ptr %2, align 4, !tbaa !10
  %4 = and i32 %3, 2048
  %5 = icmp ne i32 %4, 0
  %6 = xor i1 %5, true
  %7 = xor i1 %6, true
  ret i1 %7
}

; Function Attrs: inlinehint mustprogress nounwind uwtable
define linkonce_odr hidden noundef zeroext i1 @_ZN7Imf_3_47isTiledEi(i32 noundef %0) #6 comdat {
  %2 = alloca i32, align 4
  store i32 %0, ptr %2, align 4, !tbaa !10
  %3 = load i32, ptr %2, align 4, !tbaa !10
  %4 = and i32 %3, 512
  %5 = icmp ne i32 %4, 0
  %6 = xor i1 %5, true
  %7 = xor i1 %6, true
  ret i1 %7
}

; Function Attrs: mustprogress uwtable
define linkonce_odr hidden void @_ZN7Imf_3_43Xdr4readINS_8StreamIOENS_11StdIFStreamEEEvRT0_Ri(ptr noundef nonnull align 8 dereferenceable(49) %0, ptr noundef nonnull align 4 dereferenceable(4) %1) #4 comdat {
  %3 = alloca ptr, align 8
  %4 = alloca ptr, align 8
  %5 = alloca [4 x i8], align 1
  store ptr %0, ptr %3, align 8, !tbaa !14
  store ptr %1, ptr %4, align 8, !tbaa !16
  call void @llvm.lifetime.start.p0(i64 4, ptr %5) #3
  %6 = load ptr, ptr %3, align 8, !tbaa !14
  %7 = getelementptr inbounds [4 x i8], ptr %5, i64 0, i64 0
  call void @_ZN7Imf_3_43Xdr15readSignedCharsINS_8StreamIOENS_11StdIFStreamEEEvRT0_Pai(ptr noundef nonnull align 8 dereferenceable(49) %6, ptr noundef %7, i32 noundef 4)
  %8 = getelementptr inbounds [4 x i8], ptr %5, i64 0, i64 0
  %9 = load i8, ptr %8, align 1, !tbaa !18
  %10 = zext i8 %9 to i32
  %11 = and i32 %10, 255
  %12 = getelementptr inbounds [4 x i8], ptr %5, i64 0, i64 1
  %13 = load i8, ptr %12, align 1, !tbaa !18
  %14 = zext i8 %13 to i32
  %15 = shl i32 %14, 8
  %16 = and i32 %15, 65280
  %17 = or i32 %11, %16
  %18 = getelementptr inbounds [4 x i8], ptr %5, i64 0, i64 2
  %19 = load i8, ptr %18, align 1, !tbaa !18
  %20 = zext i8 %19 to i32
  %21 = shl i32 %20, 16
  %22 = and i32 %21, 16711680
  %23 = or i32 %17, %22
  %24 = getelementptr inbounds [4 x i8], ptr %5, i64 0, i64 3
  %25 = load i8, ptr %24, align 1, !tbaa !18
  %26 = zext i8 %25 to i32
  %27 = shl i32 %26, 24
  %28 = or i32 %23, %27
  %29 = load ptr, ptr %4, align 8, !tbaa !16
  store i32 %28, ptr %29, align 4, !tbaa !10
  call void @llvm.lifetime.end.p0(i64 4, ptr %5) #3
  ret void
}

; Function Attrs: mustprogress uwtable
define noundef zeroext i1 @_ZN7Imf_3_413isOpenExrFileEPKcRbS2_S2_(ptr noundef %0, ptr noundef nonnull align 1 dereferenceable(1) %1, ptr noundef nonnull align 1 dereferenceable(1) %2, ptr noundef nonnull align 1 dereferenceable(1) %3) #4 personality ptr @__gxx_personality_v0 {
  %5 = alloca i1, align 1
  %6 = alloca ptr, align 8
  %7 = alloca ptr, align 8
  %8 = alloca ptr, align 8
  %9 = alloca ptr, align 8
  %10 = alloca %"class.Imf_3_4::StdIFStream", align 8
  %11 = alloca ptr, align 8
  %12 = alloca i32, align 4
  %13 = alloca i32, align 4
  %14 = alloca i32, align 4
  store ptr %0, ptr %6, align 8, !tbaa !3
  store ptr %1, ptr %7, align 8, !tbaa !8
  store ptr %2, ptr %8, align 8, !tbaa !8
  store ptr %3, ptr %9, align 8, !tbaa !8
  call void @llvm.lifetime.start.p0(i64 56, ptr %10) #3
  %15 = load ptr, ptr %6, align 8, !tbaa !3
  invoke void @_ZN7Imf_3_411StdIFStreamC1EPKc(ptr noundef nonnull align 8 dereferenceable(49) %10, ptr noundef %15)
          to label %16 unwind label %36

16:                                               ; preds = %4
  call void @llvm.lifetime.start.p0(i64 4, ptr %13) #3
  call void @llvm.lifetime.start.p0(i64 4, ptr %14) #3
  invoke void @_ZN7Imf_3_43Xdr4readINS_8StreamIOENS_11StdIFStreamEEEvRT0_Ri(ptr noundef nonnull align 8 dereferenceable(49) %10, ptr noundef nonnull align 4 dereferenceable(4) %13)
          to label %17 unwind label %40

17:                                               ; preds = %16
  invoke void @_ZN7Imf_3_43Xdr4readINS_8StreamIOENS_11StdIFStreamEEEvRT0_Ri(ptr noundef nonnull align 8 dereferenceable(49) %10, ptr noundef nonnull align 4 dereferenceable(4) %14)
          to label %18 unwind label %40

18:                                               ; preds = %17
  %19 = load i32, ptr %14, align 4, !tbaa !10
  %20 = invoke noundef zeroext i1 @_ZN7Imf_3_47isTiledEi(i32 noundef %19)
          to label %21 unwind label %40

21:                                               ; preds = %18
  %22 = load ptr, ptr %7, align 8, !tbaa !8
  %23 = zext i1 %20 to i8
  store i8 %23, ptr %22, align 1, !tbaa !12
  %24 = load i32, ptr %14, align 4, !tbaa !10
  %25 = invoke noundef zeroext i1 @_ZN7Imf_3_410isNonImageEi(i32 noundef %24)
          to label %26 unwind label %40

26:                                               ; preds = %21
  %27 = load ptr, ptr %8, align 8, !tbaa !8
  %28 = zext i1 %25 to i8
  store i8 %28, ptr %27, align 1, !tbaa !12
  %29 = load i32, ptr %14, align 4, !tbaa !10
  %30 = invoke noundef zeroext i1 @_ZN7Imf_3_411isMultiPartEi(i32 noundef %29)
          to label %31 unwind label %40

31:                                               ; preds = %26
  %32 = load ptr, ptr %9, align 8, !tbaa !8
  %33 = zext i1 %30 to i8
  store i8 %33, ptr %32, align 1, !tbaa !12
  %34 = load i32, ptr %13, align 4, !tbaa !10
  %35 = icmp eq i32 %34, 20000630
  store i1 %35, ptr %5, align 1
  call void @llvm.lifetime.end.p0(i64 4, ptr %14) #3
  call void @llvm.lifetime.end.p0(i64 4, ptr %13) #3
  call void @_ZN7Imf_3_411StdIFStreamD1Ev(ptr noundef nonnull align 8 dereferenceable(49) %10) #3
  call void @llvm.lifetime.end.p0(i64 56, ptr %10) #3
  br label %50

36:                                               ; preds = %4
  %37 = landingpad { ptr, i32 }
          catch ptr null
  %38 = extractvalue { ptr, i32 } %37, 0
  store ptr %38, ptr %11, align 8
  %39 = extractvalue { ptr, i32 } %37, 1
  store i32 %39, ptr %12, align 4
  br label %44

40:                                               ; preds = %26, %21, %18, %17, %16
  %41 = landingpad { ptr, i32 }
          catch ptr null
  %42 = extractvalue { ptr, i32 } %41, 0
  store ptr %42, ptr %11, align 8
  %43 = extractvalue { ptr, i32 } %41, 1
  store i32 %43, ptr %12, align 4
  call void @llvm.lifetime.end.p0(i64 4, ptr %14) #3
  call void @llvm.lifetime.end.p0(i64 4, ptr %13) #3
  call void @_ZN7Imf_3_411StdIFStreamD1Ev(ptr noundef nonnull align 8 dereferenceable(49) %10) #3
  br label %44

44:                                               ; preds = %40, %36
  call void @llvm.lifetime.end.p0(i64 56, ptr %10) #3
  br label %45

45:                                               ; preds = %44
  %46 = load ptr, ptr %11, align 8
  %47 = call ptr @__cxa_begin_catch(ptr %46) #3
  %48 = load ptr, ptr %7, align 8, !tbaa !8
  store i8 0, ptr %48, align 1, !tbaa !12
  store i1 false, ptr %5, align 1
  call void @__cxa_end_catch()
  br label %50

49:                                               ; No predecessors!
  unreachable

50:                                               ; preds = %45, %31
  %51 = load i1, ptr %5, align 1
  ret i1 %51
}