; Function Attrs: mustprogress uwtable
define noundef zeroext i1 @_ZN7Imf_3_413isOpenExrFileEPKcRbS2_S2_(ptr noundef %0, ptr noundef nonnull writeonly align 1 captures(none) dereferenceable(1) initializes((0, 1)) %1, ptr noundef nonnull writeonly align 1 captures(none) dereferenceable(1) %2, ptr noundef nonnull writeonly align 1 captures(none) dereferenceable(1) %3) local_unnamed_addr #3 personality ptr @__gxx_personality_v0 {
  %5 = alloca [4 x i8], align 4
  %6 = alloca [4 x i8], align 4
  %7 = alloca %"class.Imf_3_4::StdIFStream", align 8
  call void @llvm.lifetime.start.p0(i64 56, ptr nonnull %7) #8
  invoke void @_ZN7Imf_3_411StdIFStreamC1EPKc(ptr noundef nonnull align 8 dereferenceable(49) %7, ptr noundef %0)
          to label %8 unwind label %31

8:                                                ; preds = %4
  call void @llvm.lifetime.start.p0(i64 4, ptr nonnull %6) #8
  %9 = load ptr, ptr %7, align 8, !tbaa !3
  %10 = getelementptr inbounds nuw i8, ptr %9, i64 24
  %11 = load ptr, ptr %10, align 8
  %12 = invoke noundef zeroext i1 %11(ptr noundef nonnull align 8 dereferenceable(49) %7, ptr noundef nonnull %6, i32 noundef 4)
          to label %13 unwind label %33

13:                                               ; preds = %8
  %14 = load i32, ptr %6, align 4
  call void @llvm.lifetime.end.p0(i64 4, ptr nonnull %6) #8
  call void @llvm.lifetime.start.p0(i64 4, ptr nonnull %5) #8
  %15 = load ptr, ptr %7, align 8, !tbaa !3
  %16 = getelementptr inbounds nuw i8, ptr %15, i64 24
  %17 = load ptr, ptr %16, align 8
  %18 = invoke noundef zeroext i1 %17(ptr noundef nonnull align 8 dereferenceable(49) %7, ptr noundef nonnull %5, i32 noundef 4)
          to label %19 unwind label %33

19:                                               ; preds = %13
  %20 = load i32, ptr %5, align 4
  call void @llvm.lifetime.end.p0(i64 4, ptr nonnull %5) #8
  %21 = lshr i32 %20, 9
  %22 = trunc i32 %21 to i8
  %23 = and i8 %22, 1
  store i8 %23, ptr %1, align 1, !tbaa !6
  %24 = lshr i32 %20, 11
  %25 = trunc i32 %24 to i8
  %26 = and i8 %25, 1
  store i8 %26, ptr %2, align 1, !tbaa !6
  %27 = lshr i32 %20, 12
  %28 = trunc i32 %27 to i8
  %29 = and i8 %28, 1
  store i8 %29, ptr %3, align 1, !tbaa !6
  %30 = icmp eq i32 %14, 20000630
  call void @_ZN7Imf_3_411StdIFStreamD1Ev(ptr noundef nonnull align 8 dereferenceable(49) %7) #8
  call void @llvm.lifetime.end.p0(i64 56, ptr nonnull %7) #8
  br label %37

31:                                               ; preds = %4
  %32 = landingpad { ptr, i32 }
          catch ptr null
  br label %35

33:                                               ; preds = %13, %8
  %34 = landingpad { ptr, i32 }
          catch ptr null
  call void @_ZN7Imf_3_411StdIFStreamD1Ev(ptr noundef nonnull align 8 dereferenceable(49) %7) #8
  br label %35

35:                                               ; preds = %33, %31
  %.pn = phi { ptr, i32 } [ %34, %33 ], [ %32, %31 ]
  %.0 = extractvalue { ptr, i32 } %.pn, 0
  call void @llvm.lifetime.end.p0(i64 56, ptr nonnull %7) #8
  %36 = call ptr @__cxa_begin_catch(ptr %.0) #8
  store i8 0, ptr %1, align 1, !tbaa !6
  call void @__cxa_end_catch()
  br label %37

37:                                               ; preds = %35, %19
  %.07 = phi i1 [ %30, %19 ], [ false, %35 ]
  ret i1 %.07
}